; Function Attrs: nounwind uwtable
define internal range(i32 -12, 1) i32 @config_input(ptr noundef %0) #1 {
  %2 = getelementptr inbounds nuw i8, ptr %0, i64 16
  %3 = load ptr, ptr %2, align 8, !tbaa !22
  %4 = getelementptr inbounds nuw i8, ptr %3, i64 72
  %5 = load ptr, ptr %4, align 8, !tbaa !4
  %6 = getelementptr inbounds nuw i8, ptr %0, i64 36
  %7 = load i32, ptr %6, align 4, !tbaa !48
  switch i32 %7, label %10 [
    i32 8, label %.sink.split
    i32 9, label %8
  ]

8:                                                ; preds = %1
  br label %.sink.split

.sink.split:                                      ; preds = %1, %8
  %filter_channels_dblp.sink = phi ptr [ @filter_channels_dblp, %8 ], [ @filter_channels_fltp, %1 ]
  %9 = getelementptr inbounds nuw i8, ptr %5, i64 456
  store ptr %filter_channels_dblp.sink, ptr %9, align 8, !tbaa !46
  br label %10

10:                                               ; preds = %.sink.split, %1
  %11 = tail call ptr @ff_get_audio_buffer(ptr noundef nonnull %0, i32 noundef 20) #10
  %12 = getelementptr inbounds nuw i8, ptr %5, i64 448
  store ptr %11, ptr %12, align 8, !tbaa !49
  %.not = icmp eq ptr %11, null
  br i1 %.not, label %14, label %13

13:                                               ; preds = %10
  tail call fastcc void @get_coeffs(ptr noundef nonnull %3)
  br label %14

14:                                               ; preds = %10, %13
  %.0 = phi i32 [ 0, %13 ], [ -12, %10 ]
  ret i32 %.0
}